target datalayout = "e-m:e-p270:32:32-p271:32:32-p272:64:64-i64:64-i128:128-f80:128-n8:16:32:64-S128"
target triple = "x86_64-pc-linux-gnu"

%"class.google::protobuf::io::ZeroCopyInputStream" = type { ptr }
%"class.google::protobuf::io::LimitingInputStream" = type { %"class.google::protobuf::io::ZeroCopyInputStream", ptr, i64, i64 }

; Function Attrs: mustprogress uwtable
define hidden void @_ZN6google8protobuf2io19LimitingInputStream6BackUpEi(ptr noundef nonnull align 8 dereferenceable(32) %0, i32 noundef %1) unnamed_addr #4 align 2 {
  %3 = alloca ptr, align 8
  %4 = alloca i32, align 4
  store ptr %0, ptr %3, align 8, !tbaa !95
  store i32 %1, ptr %4, align 4, !tbaa !9
  %5 = load ptr, ptr %3, align 8
  %6 = getelementptr inbounds nuw %"class.google::protobuf::io::LimitingInputStream", ptr %5, i32 0, i32 2
  %7 = load i64, ptr %6, align 8, !tbaa !99
  %8 = icmp slt i64 %7, 0
  br i1 %8, label %9, label %24

9:                                                ; preds = %2
  %10 = getelementptr inbounds nuw %"class.google::protobuf::io::LimitingInputStream", ptr %5, i32 0, i32 1
  %11 = load ptr, ptr %10, align 8, !tbaa !97
  %12 = load i32, ptr %4, align 4, !tbaa !9
  %13 = sext i32 %12 to i64
  %14 = getelementptr inbounds nuw %"class.google::protobuf::io::LimitingInputStream", ptr %5, i32 0, i32 2
  %15 = load i64, ptr %14, align 8, !tbaa !99
  %16 = sub nsw i64 %13, %15
  %17 = trunc i64 %16 to i32
  %18 = load ptr, ptr %11, align 8, !tbaa !11
  %19 = getelementptr inbounds ptr, ptr %18, i64 3
  %20 = load ptr, ptr %19, align 8
  call void %20(ptr noundef nonnull align 8 dereferenceable(8) %11, i32 noundef %17)
  %21 = load i32, ptr %4, align 4, !tbaa !9
  %22 = sext i32 %21 to i64
  %23 = getelementptr inbounds nuw %"class.google::protobuf::io::LimitingInputStream", ptr %5, i32 0, i32 2
  store i64 %22, ptr %23, align 8, !tbaa !99
  br label %36

24:                                               ; preds = %2
  %25 = getelementptr inbounds nuw %"class.google::protobuf::io::LimitingInputStream", ptr %5, i32 0, i32 1
  %26 = load ptr, ptr %25, align 8, !tbaa !97
  %27 = load i32, ptr %4, align 4, !tbaa !9
  %28 = load ptr, ptr %26, align 8, !tbaa !11
  %29 = getelementptr inbounds ptr, ptr %28, i64 3
  %30 = load ptr, ptr %29, align 8
  call void %30(ptr noundef nonnull align 8 dereferenceable(8) %26, i32 noundef %27)
  %31 = load i32, ptr %4, align 4, !tbaa !9
  %32 = sext i32 %31 to i64
  %33 = getelementptr inbounds nuw %"class.google::protobuf::io::LimitingInputStream", ptr %5, i32 0, i32 2
  %34 = load i64, ptr %33, align 8, !tbaa !99
  %35 = add nsw i64 %34, %32
  store i64 %35, ptr %33, align 8, !tbaa !99
  br label %36

36:                                               ; preds = %24, %9
  ret void
}